; Function Attrs: mustprogress nounwind uwtable
define internal fastcc noundef zeroext i1 @"_ZN9__gnu_cxx5__ops15_Iter_comp_iterIZNK5clang6driver6Driver21HandleAutocompletionsEN4llvm9StringRefEE3$_0EclINS_17__normal_iteratorIPNSt7__cxx1112basic_stringIcSt11char_traitsIcESaIcEEESt6vectorISG_SaISG_EEEESL_EEbT_T0_"(ptr nonnull %0, ptr %1) unnamed_addr #0 align 2 {
  %3 = alloca %"class.llvm::StringRef", align 8
  %4 = tail call noundef ptr @_ZNKSt7__cxx1112basic_stringIcSt11char_traitsIcESaIcEE4dataEv(ptr noundef nonnull align 8 dereferenceable(32) %0) #30
  %5 = tail call noundef i64 @_ZNKSt7__cxx1112basic_stringIcSt11char_traitsIcESaIcEE6lengthEv(ptr noundef nonnull align 8 dereferenceable(32) %0) #30
  %6 = tail call noundef ptr @_ZNKSt7__cxx1112basic_stringIcSt11char_traitsIcESaIcEE4dataEv(ptr noundef nonnull align 8 dereferenceable(32) %1) #30
  %7 = tail call noundef i64 @_ZNKSt7__cxx1112basic_stringIcSt11char_traitsIcESaIcEE6lengthEv(ptr noundef nonnull align 8 dereferenceable(32) %1) #30
  call void @llvm.lifetime.start.p0(i64 16, ptr nonnull %3)
  store ptr %4, ptr %3, align 8
  %8 = getelementptr inbounds nuw i8, ptr %3, i64 8
  store i64 %5, ptr %8, align 8
  %9 = call noundef i32 @_ZNK4llvm9StringRef19compare_insensitiveES0_(ptr noundef nonnull align 8 dereferenceable(16) %3, ptr %6, i64 %7) #30
  %.not.i = icmp eq i32 %9, 0
  br i1 %.not.i, label %12, label %10

10:                                               ; preds = %2
  %11 = icmp slt i32 %9, 0
  br label %"_ZZNK5clang6driver6Driver21HandleAutocompletionsEN4llvm9StringRefEENK3$_0clES3_S3_.exit"

12:                                               ; preds = %2
  %13 = load i64, ptr %8, align 8
  %.sroa.speculated.i.i = call i64 @llvm.umin.i64(i64 %7, i64 %13)
  %14 = icmp eq i64 %.sroa.speculated.i.i, 0
  br i1 %14, label %_ZN4llvm9StringRef13compareMemoryEPKcS2_m.exit.thread.i.i, label %_ZN4llvm9StringRef13compareMemoryEPKcS2_m.exit.i.i

_ZN4llvm9StringRef13compareMemoryEPKcS2_m.exit.i.i: ; preds = %12
  %15 = load ptr, ptr %3, align 8
  %16 = call i32 @memcmp(ptr noundef %15, ptr noundef %6, i64 noundef %.sroa.speculated.i.i) #32
  %.not.i.i = icmp eq i32 %16, 0
  br i1 %.not.i.i, label %_ZN4llvm9StringRef13compareMemoryEPKcS2_m.exit.thread.i.i, label %17

17:                                               ; preds = %_ZN4llvm9StringRef13compareMemoryEPKcS2_m.exit.i.i
  %.inv.i.i = icmp sgt i32 %16, -1
  br label %"_ZZNK5clang6driver6Driver21HandleAutocompletionsEN4llvm9StringRefEENK3$_0clES3_S3_.exit"

_ZN4llvm9StringRef13compareMemoryEPKcS2_m.exit.thread.i.i: ; preds = %_ZN4llvm9StringRef13compareMemoryEPKcS2_m.exit.i.i, %12
  %spec.select.i = icmp ugt i64 %13, %7
  br label %"_ZZNK5clang6driver6Driver21HandleAutocompletionsEN4llvm9StringRefEENK3$_0clES3_S3_.exit"

"_ZZNK5clang6driver6Driver21HandleAutocompletionsEN4llvm9StringRefEENK3$_0clES3_S3_.exit": ; preds = %10, %17, %_ZN4llvm9StringRef13compareMemoryEPKcS2_m.exit.thread.i.i
  %.0.i = phi i1 [ %11, %10 ], [ %.inv.i.i, %17 ], [ %spec.select.i, %_ZN4llvm9StringRef13compareMemoryEPKcS2_m.exit.thread.i.i ]
  call void @llvm.lifetime.end.p0(i64 16, ptr nonnull %3)
  ret i1 %.0.i
}